; Function Attrs: nofree norecurse nosync nounwind memory(read, argmem: readwrite, inaccessiblemem: none) uwtable
define internal void @Eval15Inputs(ptr nocapture noundef readonly %0, ptr nocapture noundef writeonly %1, ptr nocapture noundef readonly %2) #4 {
  %4 = alloca [128 x i16], align 16
  %5 = alloca [128 x i16], align 16
  %6 = alloca %struct._cms_interp_struc, align 8
  %7 = getelementptr inbounds i8, ptr %2, i64 200
  %8 = load ptr, ptr %7, align 8
  %9 = load i16, ptr %0, align 2
  %10 = zext i16 %9 to i32
  %11 = getelementptr inbounds i8, ptr %2, i64 80
  %12 = load i32, ptr %11, align 8
  %13 = mul i32 %12, %10
  %14 = add nsw i32 %13, 32767
  %15 = sdiv i32 %14, 65535
  %16 = add nsw i32 %15, %13
  %17 = ashr i32 %16, 16
  %18 = and i32 %16, 65535
  %19 = getelementptr inbounds i8, ptr %2, i64 196
  %20 = load i32, ptr %19, align 4
  %21 = mul i32 %17, %20
  %.not = icmp ne i16 %9, -1
  %22 = zext i1 %.not to i32
  %23 = add nsw i32 %17, %22
  %24 = mul i32 %23, %20
  call void @llvm.memcpy.p0.p0.i64(ptr noundef nonnull align 8 dereferenceable(216) %6, ptr noundef nonnull align 8 dereferenceable(216) %2, i64 216, i1 false)
  %25 = getelementptr inbounds i8, ptr %6, i64 80
  %26 = getelementptr inbounds i8, ptr %2, i64 84
  call void @llvm.memcpy.p0.p0.i64(ptr noundef nonnull align 8 dereferenceable(56) %25, ptr noundef nonnull align 4 dereferenceable(56) %26, i64 56, i1 false)
  %27 = sext i32 %21 to i64
  %28 = getelementptr inbounds i16, ptr %8, i64 %27
  %29 = getelementptr inbounds i8, ptr %6, i64 200
  store ptr %28, ptr %29, align 8
  %30 = getelementptr inbounds i8, ptr %0, i64 2
  call void @Eval14Inputs(ptr noundef nonnull %30, ptr noundef nonnull %4, ptr noundef nonnull %6)
  %31 = sext i32 %24 to i64
  %32 = getelementptr inbounds i16, ptr %8, i64 %31
  store ptr %32, ptr %29, align 8
  call void @Eval14Inputs(ptr noundef nonnull %30, ptr noundef nonnull %5, ptr noundef nonnull %6)
  %33 = getelementptr inbounds i8, ptr %2, i64 16
  %34 = load i32, ptr %33, align 8
  %.not28 = icmp eq i32 %34, 0
  br i1 %.not28, label %._crit_edge, label %.lr.ph

.lr.ph:                                           ; preds = %3, %.lr.ph
  %indvars.iv = phi i64 [ %indvars.iv.next, %.lr.ph ], [ 0, %3 ]
  %35 = getelementptr inbounds [128 x i16], ptr %4, i64 0, i64 %indvars.iv
  %36 = load i16, ptr %35, align 2
  %37 = zext i16 %36 to i32
  %38 = getelementptr inbounds [128 x i16], ptr %5, i64 0, i64 %indvars.iv
  %39 = load i16, ptr %38, align 2
  %40 = zext i16 %39 to i32
  %41 = sub nsw i32 %40, %37
  %42 = mul i32 %41, %18
  %43 = add i32 %42, 32768
  %44 = lshr i32 %43, 16
  %45 = trunc nuw i32 %44 to i16
  %46 = add i16 %36, %45
  %47 = getelementptr inbounds i16, ptr %1, i64 %indvars.iv
  store i16 %46, ptr %47, align 2
  %indvars.iv.next = add nuw nsw i64 %indvars.iv, 1
  %48 = load i32, ptr %33, align 8
  %49 = zext i32 %48 to i64
  %50 = icmp ult i64 %indvars.iv.next, %49
  br i1 %50, label %.lr.ph, label %._crit_edge, !llvm.loop !50

._crit_edge:                                      ; preds = %.lr.ph, %3
  ret void
}